; ModuleID = 'source-C-CXX/10/652.c'
source_filename = "source-C-CXX/10/652.c"
target datalayout = "e-m:e-p270:32:32-p271:32:32-p272:64:64-i64:64-f80:128-n8:16:32:64-S128"
target triple = "x86_64-pc-linux-gnu"

@.str = private unnamed_addr constant [7 x i8] c"%d%d%d\00", align 1
@.str.1 = private unnamed_addr constant [3 x i8] c"%d\00", align 1

; Function Attrs: nofree nounwind sspstrong uwtable
define dso_local i32 @main() local_unnamed_addr #0 {
  %1 = alloca i32, align 4
  %2 = alloca i32, align 4
  %3 = alloca i32, align 4
  %4 = alloca [20 x i32], align 16
  %5 = bitcast i32* %1 to i8*
  call void @llvm.lifetime.start.p0i8(i64 4, i8* nonnull %5) #3
  %6 = bitcast i32* %2 to i8*
  call void @llvm.lifetime.start.p0i8(i64 4, i8* nonnull %6) #3
  %7 = bitcast i32* %3 to i8*
  call void @llvm.lifetime.start.p0i8(i64 4, i8* nonnull %7) #3
  %8 = bitcast [20 x i32]* %4 to i8*
  call void @llvm.lifetime.start.p0i8(i64 80, i8* nonnull %8) #3
  %9 = bitcast [20 x i32]* %4 to <4 x i32>*
  store <4 x i32> <i32 0, i32 31, i32 59, i32 90>, <4 x i32>* %9, align 16, !tbaa !5
  %10 = getelementptr inbounds [20 x i32], [20 x i32]* %4, i64 0, i64 4
  %11 = bitcast i32* %10 to <4 x i32>*
  store <4 x i32> <i32 120, i32 151, i32 181, i32 212>, <4 x i32>* %11, align 16, !tbaa !5
  %12 = getelementptr inbounds [20 x i32], [20 x i32]* %4, i64 0, i64 8
  %13 = bitcast i32* %12 to <4 x i32>*
  store <4 x i32> <i32 243, i32 273, i32 304, i32 334>, <4 x i32>* %13, align 16, !tbaa !5
  %14 = getelementptr inbounds [20 x i32], [20 x i32]* %4, i64 0, i64 12
  store i32 365, i32* %14, align 16, !tbaa !5
  %15 = call i32 (i8*, ...) @__isoc99_scanf(i8* getelementptr inbounds ([7 x i8], [7 x i8]* @.str, i64 0, i64 0), i32* nonnull %1, i32* nonnull %2, i32* nonnull %3)
  %16 = load i32, i32* %1, align 4, !tbaa !5
  %17 = and i32 %16, 3
  %18 = icmp eq i32 %17, 0
  br i1 %18, label %19, label %25

19:                                               ; preds = %0
  %20 = srem i32 %16, 100
  %21 = icmp ne i32 %20, 0
  %22 = srem i32 %16, 400
  %23 = icmp eq i32 %22, 0
  %24 = or i1 %21, %23
  br i1 %24, label %33, label %25

25:                                               ; preds = %19, %0
  %26 = load i32, i32* %2, align 4, !tbaa !5
  %27 = add nsw i32 %26, -1
  %28 = sext i32 %27 to i64
  %29 = getelementptr inbounds [20 x i32], [20 x i32]* %4, i64 0, i64 %28
  %30 = load i32, i32* %29, align 4, !tbaa !5
  %31 = load i32, i32* %3, align 4, !tbaa !5
  %32 = add nsw i32 %31, %30
  br label %50

33:                                               ; preds = %19
  %34 = load i32, i32* %2, align 4, !tbaa !5
  %35 = icmp slt i32 %34, 3
  %36 = add nsw i32 %34, -1
  br i1 %35, label %37, label %43

37:                                               ; preds = %33
  %38 = sext i32 %36 to i64
  %39 = getelementptr inbounds [20 x i32], [20 x i32]* %4, i64 0, i64 %38
  %40 = load i32, i32* %39, align 4, !tbaa !5
  %41 = load i32, i32* %3, align 4, !tbaa !5
  %42 = add nsw i32 %41, %40
  br label %50

43:                                               ; preds = %33
  %44 = zext i32 %36 to i64
  %45 = getelementptr inbounds [20 x i32], [20 x i32]* %4, i64 0, i64 %44
  %46 = load i32, i32* %45, align 4, !tbaa !5
  %47 = load i32, i32* %3, align 4, !tbaa !5
  %48 = add i32 %46, 1
  %49 = add i32 %48, %47
  br label %50

50:                                               ; preds = %37, %43, %25
  %51 = phi i32 [ %32, %25 ], [ %42, %37 ], [ %49, %43 ]
  %52 = call i32 (i8*, ...) @printf(i8* nonnull dereferenceable(1) getelementptr inbounds ([3 x i8], [3 x i8]* @.str.1, i64 0, i64 0), i32 %51)
  call void @llvm.lifetime.end.p0i8(i64 80, i8* nonnull %8) #3
  call void @llvm.lifetime.end.p0i8(i64 4, i8* nonnull %7) #3
  call void @llvm.lifetime.end.p0i8(i64 4, i8* nonnull %6) #3
  call void @llvm.lifetime.end.p0i8(i64 4, i8* nonnull %5) #3
  ret i32 0
}

; Function Attrs: argmemonly mustprogress nofree nosync nounwind willreturn
declare void @llvm.lifetime.start.p0i8(i64 immarg, i8* nocapture) #1

; Function Attrs: nofree nounwind
declare noundef i32 @__isoc99_scanf(i8* nocapture noundef readonly, ...) local_unnamed_addr #2

; Function Attrs: nofree nounwind
declare noundef i32 @printf(i8* nocapture noundef readonly, ...) local_unnamed_addr #2

; Function Attrs: argmemonly mustprogress nofree nosync nounwind willreturn
declare void @llvm.lifetime.end.p0i8(i64 immarg, i8* nocapture) #1


!llvm.module.flags = !{!0, !1, !2, !3}
!llvm.ident = !{!4}

!0 = !{i32 1, !"wchar_size", i32 4}
!1 = !{i32 7, !"PIC Level", i32 2}
!2 = !{i32 7, !"PIE Level", i32 2}
!3 = !{i32 7, !"uwtable", i32 1}
!4 = !{!"clang version 13.0.0"}
!5 = !{!6, !6, i64 0}
!6 = !{!"int", !7, i64 0}
!7 = !{!"omnipotent char", !8, i64 0}
!8 = !{!"Simple C/C++ TBAA"}
